; Function Attrs: mustprogress uwtable
define hidden noundef ptr @_ZN9format_ns9mk_indentER11ast_managerjP3app(ptr noundef nonnull align 8 dereferenceable(976) %0, i32 noundef %1, ptr noundef %2) local_unnamed_addr #3 personality ptr @__gxx_personality_v0 {
  %4 = alloca %class.parameter, align 8
  %5 = alloca ptr, align 8
  call void @llvm.lifetime.start.p0(i64 16, ptr nonnull %4) #20
  store i32 %1, ptr %4, align 8, !tbaa !125
  %6 = getelementptr inbounds nuw i8, ptr %4, i64 8
  store i8 0, ptr %6, align 8, !tbaa !109
  call void @llvm.lifetime.start.p0(i64 8, ptr nonnull %5) #20
  store ptr %2, ptr %5, align 8, !tbaa !96
  %7 = getelementptr inbounds nuw i8, ptr %0, i64 928
  %8 = load ptr, ptr %7, align 8, !tbaa !3
  %9 = invoke noundef i32 @_ZN9format_ns20get_format_family_idER11ast_manager(ptr noundef nonnull align 8 dereferenceable(976) %0)
          to label %_ZN9format_nsL3fidER11ast_manager.exit unwind label %14

_ZN9format_nsL3fidER11ast_manager.exit:           ; preds = %3
  %10 = icmp eq ptr %8, null
  %11 = select i1 %10, ptr %0, ptr %8
  %12 = invoke noundef ptr @_ZN11ast_manager6mk_appEiijPK9parameterjPKP4exprP4sort(ptr noundef nonnull align 8 dereferenceable(976) %11, i32 noundef %9, i32 noundef 2, i32 noundef 1, ptr noundef nonnull %4, i32 noundef 1, ptr noundef nonnull %5, ptr noundef null)
          to label %13 unwind label %14

13:                                               ; preds = %_ZN9format_nsL3fidER11ast_manager.exit
  call void @llvm.lifetime.end.p0(i64 8, ptr nonnull %5) #20
  call void @_ZN9parameterD1Ev(ptr noundef nonnull align 8 dereferenceable(16) %4) #20
  call void @llvm.lifetime.end.p0(i64 16, ptr nonnull %4) #20
  ret ptr %12

14:                                               ; preds = %3, %_ZN9format_nsL3fidER11ast_manager.exit
  %15 = landingpad { ptr, i32 }
          cleanup
  call void @llvm.lifetime.end.p0(i64 8, ptr nonnull %5) #20
  call void @_ZN9parameterD1Ev(ptr noundef nonnull align 8 dereferenceable(16) %4) #20
  call void @llvm.lifetime.end.p0(i64 16, ptr nonnull %4) #20
  resume { ptr, i32 } %15
}